#include <math.h>
#include <stdio.h>
#include <stdlib.h>
#include <string.h>

int main()
{
int n[100][100],i,j,a,b,x;
scanf("%d %d",&a,&b);
for(i=0;i<a;i++)
{
for(j=0;j<b;j++)
scanf("%d",&n[i][j]);
}
for(int m=0;m<b;m++)
{
    
    for(i=m,j=0;i>=0&&j<a;i--,j++)
        printf("%d\n",n[j][i]);
}
 

for(x=1;x<a;x++)
{   
     
    for(j=x,i=b-1;j<a&&i>=0;j++,i--)
     printf("%d\n",n[j][i]);
 }
int z;
scanf("%d",&z);
return 0;
}
